target datalayout = "e-m:e-p270:32:32-p271:32:32-p272:64:64-i64:64-i128:128-f80:128-n8:16:32:64-S128"
target triple = "x86_64-pc-linux-gnu"

%class.CompositeCounterRepresentation = type { %class.Representation }
%class.Representation = type { %class.PairRep }
%class.PairRep = type { i64, i64 }
%class.TimeInterval = type { %class.CompositeCounterRepresentation }
%class.Semaphore = type { %class.PosixSemaphore }
%class.PosixSemaphore = type { %union.sem_t }
%union.sem_t = type { i64, [24 x i8] }
%class.LockFreeStack = type { ptr }
%class.G1BarrierSet = type { %class.CardTableBarrierSet, %"class.BufferNode::Allocator", %"class.BufferNode::Allocator", %class.G1SATBMarkQueueSet, %class.G1DirtyCardQueueSet }
%class.CardTableBarrierSet = type { %class.ModRefBarrierSet, i8, ptr }
%class.ModRefBarrierSet = type { %class.BarrierSet }
%class.BarrierSet = type { ptr, %class.FakeRttiSupport, ptr, ptr, ptr, ptr, ptr }
%class.FakeRttiSupport = type <{ i64, i32, [4 x i8] }>
%"class.BufferNode::Allocator" = type { %"class.BufferNode::AllocatorConfig", %class.FreeListAllocator }
%"class.BufferNode::AllocatorConfig" = type { %class.FreeListConfig, i64 }
%class.FreeListConfig = type { ptr, i64 }
%class.FreeListAllocator = type { ptr, [120 x i8], i64, [120 x i8], %class.LockFreeStack.51, [120 x i8], i8, [127 x i8], i32, [2 x %"class.FreeListAllocator::PendingList"] }
%class.LockFreeStack.51 = type { ptr }
%"class.FreeListAllocator::PendingList" = type { ptr, ptr, i64 }
%class.G1SATBMarkQueueSet = type { %class.SATBMarkQueueSet.base, [7 x i8] }
%class.SATBMarkQueueSet.base = type <{ %class.PtrQueueSet, [128 x i8], %class.PaddedEnd, i64, i64, i64, i8, [96 x i8] }>
%class.PtrQueueSet = type { ptr, ptr }
%class.PaddedEnd = type { %class.PaddedEndImpl }
%class.PaddedEndImpl = type { %class.LockFreeStack, [120 x i8] }
%class.G1DirtyCardQueueSet = type { %class.PtrQueueSet, [128 x i8], i64, [120 x i8], i64, [120 x i8], %class.NonblockingQueue, [120 x i8], %"class.G1DirtyCardQueueSet::PausedBuffers", %class.G1FreeIdSet, %class.G1ConcurrentRefineStats, %class.G1ConcurrentRefineStats }
%class.NonblockingQueue = type { ptr, [120 x i8], ptr }
%"class.G1DirtyCardQueueSet::PausedBuffers" = type { ptr, [120 x i8] }
%class.G1FreeIdSet = type { %class.Semaphore, ptr, i32, i32, i64, i64 }
%class.G1ConcurrentRefineStats = type { %class.TimeInterval, i64, i64, i64 }
%class.BufferNode = type { i32, i32, ptr, [1 x ptr] }
%class.anon.45 = type { i8 }

@_ZN10BarrierSet12_barrier_setE = external global ptr, align 8

; Function Attrs: mustprogress nounwind uwtable
define linkonce_odr hidden noundef i64 @_ZZN10BufferNode13buffer_offsetEvENKUlvE_clEv(ptr noundef nonnull align 1 dereferenceable(1) %0) #1 comdat align 2 {
  %2 = alloca ptr, align 8
  %3 = alloca [24 x i8], align 16
  %4 = alloca ptr, align 8
  %5 = alloca ptr, align 8
  store ptr %0, ptr %2, align 8
  %6 = getelementptr inbounds [24 x i8], ptr %3, i64 0, i64 0
  store ptr %6, ptr %4, align 8
  %7 = load ptr, ptr %4, align 8
  %8 = getelementptr inbounds %class.BufferNode, ptr %7, i32 0, i32 3
  store ptr %8, ptr %5, align 8
  %9 = load ptr, ptr %5, align 8
  %10 = getelementptr inbounds [24 x i8], ptr %3, i64 0, i64 0
  %11 = ptrtoint ptr %9 to i64
  %12 = ptrtoint ptr %10 to i64
  %13 = sub i64 %11, %12
  ret i64 %13
}

; Function Attrs: mustprogress nounwind uwtable
define linkonce_odr hidden noundef i64 @_ZN10BufferNode13buffer_offsetEv() #1 comdat align 2 {
  %1 = alloca %class.anon.45, align 1
  %2 = call noundef i64 @_ZZN10BufferNode13buffer_offsetEvENKUlvE_clEv(ptr noundef nonnull align 1 dereferenceable(1) %1)
  ret i64 %2
}

; Function Attrs: mustprogress nounwind uwtable
define linkonce_odr hidden noundef i64 @_ZNK10BufferNode15AllocatorConfig15buffer_capacityEv(ptr noundef nonnull align 8 dereferenceable(24) %0) #1 comdat align 2 {
  %2 = alloca ptr, align 8
  store ptr %0, ptr %2, align 8
  %3 = load ptr, ptr %2, align 8
  %4 = getelementptr inbounds %"class.BufferNode::AllocatorConfig", ptr %3, i32 0, i32 1
  %5 = load i64, ptr %4, align 8
  ret i64 %5
}

; Function Attrs: mustprogress nounwind uwtable
define linkonce_odr hidden noundef ptr @_Z16barrier_set_castI12G1BarrierSetEPT_P10BarrierSet(ptr noundef %0) #1 comdat {
  %2 = alloca ptr, align 8
  store ptr %0, ptr %2, align 8
  %3 = load ptr, ptr %2, align 8
  ret ptr %3
}

; Function Attrs: mustprogress nounwind uwtable
define linkonce_odr hidden noundef ptr @_ZN10BarrierSet11barrier_setEv() #1 comdat align 2 {
  %1 = load ptr, ptr @_ZN10BarrierSet12_barrier_setE, align 8
  ret ptr %1
}

; Function Attrs: mustprogress nounwind uwtable
define linkonce_odr hidden void @_ZN10BufferNode9set_indexEm(ptr noundef nonnull align 8 dereferenceable(24) %0, i64 noundef %1) #1 comdat align 2 {
  %3 = alloca ptr, align 8
  %4 = alloca i64, align 8
  store ptr %0, ptr %3, align 8
  store i64 %1, ptr %4, align 8
  %5 = load ptr, ptr %3, align 8
  %6 = load i64, ptr %4, align 8
  %7 = trunc i64 %6 to i32
  %8 = getelementptr inbounds %class.BufferNode, ptr %5, i32 0, i32 0
  store i32 %7, ptr %8, align 8
  ret void
}

; Function Attrs: mustprogress nounwind uwtable
define linkonce_odr hidden noundef ptr @_ZN10BufferNode21make_node_from_bufferEPPv(ptr noundef %0) #1 comdat align 2 {
  %2 = alloca ptr, align 8
  %3 = alloca ptr, align 8
  store ptr %0, ptr %2, align 8
  %4 = load ptr, ptr %2, align 8
  %5 = call noundef i64 @_ZN10BufferNode13buffer_offsetEv()
  %6 = sub i64 0, %5
  %7 = getelementptr inbounds i8, ptr %4, i64 %6
  store ptr %7, ptr %3, align 8
  %8 = load ptr, ptr %3, align 8
  ret ptr %8
}

; Function Attrs: mustprogress nounwind uwtable
define linkonce_odr hidden noundef i64 @_ZNK10BufferNode9Allocator15buffer_capacityEv(ptr noundef nonnull align 8 dereferenceable(592) %0) #1 comdat align 2 {
  %2 = alloca ptr, align 8
  store ptr %0, ptr %2, align 8
  %3 = load ptr, ptr %2, align 8
  %4 = getelementptr inbounds %"class.BufferNode::Allocator", ptr %3, i32 0, i32 0
  %5 = call noundef i64 @_ZNK10BufferNode15AllocatorConfig15buffer_capacityEv(ptr noundef nonnull align 8 dereferenceable(24) %4)
  ret i64 %5
}

; Function Attrs: mustprogress nounwind uwtable
define linkonce_odr hidden noundef ptr @_ZN12G1BarrierSet14g1_barrier_setEv() #1 comdat align 2 {
  %1 = call noundef ptr @_ZN10BarrierSet11barrier_setEv()
  %2 = call noundef ptr @_Z16barrier_set_castI12G1BarrierSetEPT_P10BarrierSet(ptr noundef %1)
  ret ptr %2
}

; Function Attrs: mustprogress nounwind uwtable
define linkonce_odr hidden noundef ptr @_ZN10BufferNode21make_node_from_bufferEPPvm(ptr noundef %0, i64 noundef %1) #1 comdat align 2 {
  %3 = alloca ptr, align 8
  %4 = alloca i64, align 8
  %5 = alloca ptr, align 8
  store ptr %0, ptr %3, align 8
  store i64 %1, ptr %4, align 8
  %6 = load ptr, ptr %3, align 8
  %7 = call noundef ptr @_ZN10BufferNode21make_node_from_bufferEPPv(ptr noundef %6)
  store ptr %7, ptr %5, align 8
  %8 = load ptr, ptr %5, align 8
  %9 = load i64, ptr %4, align 8
  call void @_ZN10BufferNode9set_indexEm(ptr noundef nonnull align 8 dereferenceable(24) %8, i64 noundef %9)
  %10 = load ptr, ptr %5, align 8
  ret ptr %10
}

; Function Attrs: mustprogress nounwind uwtable
define linkonce_odr hidden noundef i64 @_ZNK11PtrQueueSet15buffer_capacityEv(ptr noundef nonnull align 8 dereferenceable(16) %0) #1 comdat align 2 {
  %2 = alloca ptr, align 8
  store ptr %0, ptr %2, align 8
  %3 = load ptr, ptr %2, align 8
  %4 = getelementptr inbounds %class.PtrQueueSet, ptr %3, i32 0, i32 1
  %5 = load ptr, ptr %4, align 8
  %6 = call noundef i64 @_ZNK10BufferNode9Allocator15buffer_capacityEv(ptr noundef nonnull align 8 dereferenceable(592) %5)
  ret i64 %6
}

; Function Attrs: mustprogress nounwind uwtable
define linkonce_odr hidden noundef nonnull align 8 dereferenceable(928) ptr @_ZN12G1BarrierSet20dirty_card_queue_setEv() #1 comdat align 2 {
  %1 = call noundef ptr @_ZN12G1BarrierSet14g1_barrier_setEv()
  %2 = getelementptr inbounds %class.G1BarrierSet, ptr %1, i32 0, i32 4
  ret ptr %2
}

; Function Attrs: mustprogress nounwind uwtable
define linkonce_odr hidden noundef zeroext i8 @_ZN9CardTable14dirty_card_valEv() #1 comdat align 2 {
  ret i8 0
}

; Function Attrs: mustprogress nounwind uwtable
define hidden void @_ZN8G1RemSet24enqueue_for_reprocessingEPh(ptr noundef nonnull align 8 dereferenceable(48) %0, ptr noundef %1) #1 align 2 {
  %3 = alloca ptr, align 8
  %4 = alloca ptr, align 8
  %5 = alloca ptr, align 8
  %6 = alloca ptr, align 8
  %7 = alloca i64, align 8
  store ptr %0, ptr %3, align 8
  store ptr %1, ptr %4, align 8
  %8 = call noundef zeroext i8 @_ZN9CardTable14dirty_card_valEv()
  %9 = load ptr, ptr %4, align 8
  store i8 %8, ptr %9, align 1
  %10 = call noundef nonnull align 8 dereferenceable(928) ptr @_ZN12G1BarrierSet20dirty_card_queue_setEv()
  store ptr %10, ptr %5, align 8
  %11 = load ptr, ptr %5, align 8
  %12 = call noundef ptr @_ZN11PtrQueueSet15allocate_bufferEv(ptr noundef nonnull align 8 dereferenceable(16) %11)
  store ptr %12, ptr %6, align 8
  %13 = load ptr, ptr %5, align 8
  %14 = call noundef i64 @_ZNK11PtrQueueSet15buffer_capacityEv(ptr noundef nonnull align 8 dereferenceable(16) %13)
  %15 = sub i64 %14, 1
  store i64 %15, ptr %7, align 8
  %16 = load ptr, ptr %4, align 8
  %17 = load ptr, ptr %6, align 8
  %18 = load i64, ptr %7, align 8
  %19 = getelementptr inbounds ptr, ptr %17, i64 %18
  store ptr %16, ptr %19, align 8
  %20 = load ptr, ptr %5, align 8
  %21 = load ptr, ptr %6, align 8
  %22 = load i64, ptr %7, align 8
  %23 = call noundef ptr @_ZN10BufferNode21make_node_from_bufferEPPvm(ptr noundef %21, i64 noundef %22)
  %24 = load ptr, ptr %20, align 8
  %25 = getelementptr inbounds ptr, ptr %24, i64 0
  %26 = load ptr, ptr %25, align 8
  call void %26(ptr noundef nonnull align 8 dereferenceable(928) %20, ptr noundef %23)
  ret void
}