; Function Attrs: mustprogress nounwind uwtable
define hidden void @_ZN8G1RemSet24enqueue_for_reprocessingEPh(ptr nocapture noundef nonnull readnone align 8 dereferenceable(48) %0, ptr noundef %1) local_unnamed_addr #1 align 2 {
  store i8 0, ptr %1, align 1
  %3 = load ptr, ptr @_ZN10BarrierSet12_barrier_setE, align 8
  %4 = getelementptr inbounds i8, ptr %3, i64 1664
  %5 = tail call noundef ptr @_ZN11PtrQueueSet15allocate_bufferEv(ptr noundef nonnull align 8 dereferenceable(16) %4) #18
  %6 = getelementptr inbounds i8, ptr %3, i64 1672
  %7 = load ptr, ptr %6, align 8
  %8 = getelementptr inbounds i8, ptr %7, i64 16
  %9 = load i64, ptr %8, align 8
  %10 = add i64 %9, -1
  %11 = getelementptr inbounds ptr, ptr %5, i64 %10
  store ptr %1, ptr %11, align 8
  %12 = getelementptr inbounds i8, ptr %5, i64 -16
  %13 = trunc i64 %10 to i32
  store i32 %13, ptr %12, align 8
  %14 = load ptr, ptr %4, align 8
  %15 = load ptr, ptr %14, align 8
  tail call void %15(ptr noundef nonnull align 8 dereferenceable(928) %4, ptr noundef nonnull %12) #18
  ret void
}